target datalayout = "e-m:e-p270:32:32-p271:32:32-p272:64:64-i64:64-i128:128-f80:128-n8:16:32:64-S128"
target triple = "x86_64-pc-linux-gnu"

; Function Attrs: mustprogress nounwind uwtable
define linkonce_odr noundef zeroext i1 @_Z14dtStatusFailedj(i32 noundef %0) #0 comdat {
  %2 = alloca i32, align 4
  store i32 %0, ptr %2, align 4
  %3 = load i32, ptr %2, align 4
  %4 = and i32 %3, -2147483648
  %5 = icmp ne i32 %4, 0
  ret i1 %5
}

; Function Attrs: mustprogress uwtable
define noundef i32 @_ZNK14dtNavMeshQuery15getEdgeMidPointEjjPf(ptr noundef nonnull align 8 dereferenceable(104) %0, i32 noundef %1, i32 noundef %2, ptr noundef %3) #1 align 2 {
  %5 = alloca i32, align 4
  %6 = alloca ptr, align 8
  %7 = alloca i32, align 4
  %8 = alloca i32, align 4
  %9 = alloca ptr, align 8
  %10 = alloca [3 x float], align 4
  %11 = alloca [3 x float], align 4
  %12 = alloca i8, align 1
  %13 = alloca i8, align 1
  store ptr %0, ptr %6, align 8
  store i32 %1, ptr %7, align 4
  store i32 %2, ptr %8, align 4
  store ptr %3, ptr %9, align 8
  %14 = load ptr, ptr %6, align 8
  %15 = load i32, ptr %7, align 4
  %16 = load i32, ptr %8, align 4
  %17 = getelementptr inbounds [3 x float], ptr %10, i64 0, i64 0
  %18 = getelementptr inbounds [3 x float], ptr %11, i64 0, i64 0
  %19 = call noundef i32 @_ZNK14dtNavMeshQuery15getPortalPointsEjjPfS0_RhS1_(ptr noundef nonnull align 8 dereferenceable(104) %14, i32 noundef %15, i32 noundef %16, ptr noundef %17, ptr noundef %18, ptr noundef nonnull align 1 dereferenceable(1) %12, ptr noundef nonnull align 1 dereferenceable(1) %13)
  %20 = call noundef zeroext i1 @_Z14dtStatusFailedj(i32 noundef %19)
  br i1 %20, label %21, label %22

21:                                               ; preds = %4
  store i32 -2147483640, ptr %5, align 4
  br label %47

22:                                               ; preds = %4
  %23 = getelementptr inbounds [3 x float], ptr %10, i64 0, i64 0
  %24 = load float, ptr %23, align 4
  %25 = getelementptr inbounds [3 x float], ptr %11, i64 0, i64 0
  %26 = load float, ptr %25, align 4
  %27 = fadd float %24, %26
  %28 = fmul float %27, 5.000000e-01
  %29 = load ptr, ptr %9, align 8
  %30 = getelementptr inbounds float, ptr %29, i64 0
  store float %28, ptr %30, align 4
  %31 = getelementptr inbounds [3 x float], ptr %10, i64 0, i64 1
  %32 = load float, ptr %31, align 4
  %33 = getelementptr inbounds [3 x float], ptr %11, i64 0, i64 1
  %34 = load float, ptr %33, align 4
  %35 = fadd float %32, %34
  %36 = fmul float %35, 5.000000e-01
  %37 = load ptr, ptr %9, align 8
  %38 = getelementptr inbounds float, ptr %37, i64 1
  store float %36, ptr %38, align 4
  %39 = getelementptr inbounds [3 x float], ptr %10, i64 0, i64 2
  %40 = load float, ptr %39, align 4
  %41 = getelementptr inbounds [3 x float], ptr %11, i64 0, i64 2
  %42 = load float, ptr %41, align 4
  %43 = fadd float %40, %42
  %44 = fmul float %43, 5.000000e-01
  %45 = load ptr, ptr %9, align 8
  %46 = getelementptr inbounds float, ptr %45, i64 2
  store float %44, ptr %46, align 4
  store i32 1073741824, ptr %5, align 4
  br label %47

47:                                               ; preds = %22, %21
  %48 = load i32, ptr %5, align 4
  ret i32 %48
}