; Function Attrs: mustprogress uwtable
define noundef i32 @_ZNK14dtNavMeshQuery15getEdgeMidPointEjjPf(ptr nocapture noundef nonnull readonly align 8 dereferenceable(104) %0, i32 noundef %1, i32 noundef %2, ptr nocapture noundef writeonly %3) local_unnamed_addr #1 align 2 {
  %5 = alloca [3 x float], align 8
  %6 = alloca [3 x float], align 8
  %7 = alloca i8, align 1
  %8 = alloca i8, align 1
  %9 = call noundef i32 @_ZNK14dtNavMeshQuery15getPortalPointsEjjPfS0_RhS1_(ptr noundef nonnull align 8 dereferenceable(104) %0, i32 noundef %1, i32 noundef %2, ptr noundef nonnull %5, ptr noundef nonnull %6, ptr noundef nonnull align 1 dereferenceable(1) %7, ptr noundef nonnull align 1 dereferenceable(1) %8), !range !12
  %10 = icmp slt i32 %9, 0
  br i1 %10, label %23, label %11

11:                                               ; preds = %4
  %12 = load <2 x float>, ptr %5, align 8
  %13 = load <2 x float>, ptr %6, align 8
  %14 = fadd <2 x float> %12, %13
  %15 = fmul <2 x float> %14, <float 5.000000e-01, float 5.000000e-01>
  store <2 x float> %15, ptr %3, align 4
  %16 = getelementptr inbounds i8, ptr %5, i64 8
  %17 = load float, ptr %16, align 8
  %18 = getelementptr inbounds i8, ptr %6, i64 8
  %19 = load float, ptr %18, align 8
  %20 = fadd float %17, %19
  %21 = fmul float %20, 5.000000e-01
  %22 = getelementptr inbounds i8, ptr %3, i64 8
  store float %21, ptr %22, align 4
  br label %23

23:                                               ; preds = %4, %11
  %.0 = phi i32 [ 1073741824, %11 ], [ -2147483640, %4 ]
  ret i32 %.0
}